; Function Attrs: mustprogress uwtable
define hidden noundef zeroext i1 @_ZN4cvc58internal12TheoryEngine10buildModelEv(ptr nocapture noundef nonnull readonly align 8 dereferenceable(1448) %this) local_unnamed_addr #3 align 2 {
entry:
  %d_tc = getelementptr inbounds i8, ptr %this, i64 168
  %0 = load ptr, ptr %d_tc, align 8
  %vtable = load ptr, ptr %0, align 8
  %vfn = getelementptr inbounds i8, ptr %vtable, i64 16
  %1 = load ptr, ptr %vfn, align 8
  %call2 = tail call noundef zeroext i1 %1(ptr noundef nonnull align 8 dereferenceable(96) %0)
  ret i1 %call2
}